LIBRARY Net.dll
EXPORTS
?GetProtocol@Socket@Net@@QAA?AV?$basic_string@DU?$char_traits@D@std@@V?$allocator@D@2@@std@@XZ
?ReceiveAll@Socket@Net@@QAA_NPAEH@Z
?SendAll@Socket@Net@@QAA_NPBEH@Z
?SendAll@Socket@Net@@QAA_NV?$vector@EV?$allocator@E@std@@@std@@@Z
?SetConnectionHandler@SocketListener@Net@@QAAXV?$function@$$A6AXV?$shared_ptr@VSocket@Net@@@std@@@Z@std@@@Z
??0TLSSocketListener@Net@@QAA@XZ
??1TLSSocketListener@Net@@UAA@XZ
?AddProtocol@TLSSocketListener@Net@@QAAXV?$basic_string@DU?$char_traits@D@std@@V?$allocator@D@2@@std@@@Z
?UsePrivateKey@TLSSocketListener@Net@@QAA_NABV?$basic_string@DU?$char_traits@D@std@@V?$allocator@D@2@@std@@W4SSLFileType@2@@Z
?UseCertificate@TLSSocketListener@Net@@QAA_NABV?$basic_string@DU?$char_traits@D@std@@V?$allocator@D@2@@std@@W4SSLFileType@2@@Z
?Listen@TLSSocketListener@Net@@UAA?AV?$shared_ptr@Vthread@std@@@std@@ABV?$shared_ptr@Usockaddr@@@4@H@Z
?GetUInt31@@YAIAAV?$_Vector_const_iterator@V?$_Vector_val@U?$_Simple_types@E@std@@@std@@@std@@@Z
??0Frame@V2@Http@Net@@QAA@XZ
??0Frame@V2@Http@Net@@QAA@AAV?$_Vector_const_iterator@V?$_Vector_val@U?$_Simple_types@E@std@@@std@@@std@@@Z
?OnData@Stream@V2@Http@Net@@QAAXAAV?$_Vector_const_iterator@V?$_Vector_val@U?$_Simple_types@E@std@@@std@@@std@@I@Z
?OnContinuation@Stream@V2@Http@Net@@QAAXAAUFrame@234@AAV?$_Vector_const_iterator@V?$_Vector_val@U?$_Simple_types@E@std@@@std@@@std@@I@Z
?SetOnContinuation@Stream@V2@Http@Net@@QAAXV?$function@$$A6AXAAUFrame@V2@Http@Net@@AAV?$_Vector_const_iterator@V?$_Vector_val@U?$_Simple_types@E@std@@@std@@@std@@I@Z@std@@@Z
?SendResponse@Connection@V2@Http@Net@@UAAX_N@Z
?SendData@Connection@V2@Http@Net@@UAAXPBEH_N@Z
?SetOnData@Connection@V2@Http@Net@@UAAXV?$function@$$A6AXAAV?$_Vector_const_iterator@V?$_Vector_val@U?$_Simple_types@E@std@@@std@@@std@@I@Z@std@@@Z
?SendResponse@Connection@V1@Http@Net@@UAAX_N@Z
?SendData@Connection@V1@Http@Net@@UAAXPBEH_N@Z
?OnData@Connection@V1@Http@Net@@QAAXAAV?$_Vector_const_iterator@V?$_Vector_val@U?$_Simple_types@E@std@@@std@@@std@@I@Z
?SetOnData@Connection@V1@Http@Net@@UAAXV?$function@$$A6AXAAV?$_Vector_const_iterator@V?$_Vector_val@U?$_Simple_types@E@std@@@std@@@std@@I@Z@std@@@Z
?GetUInt32@@YAIAAV?$_Vector_const_iterator@V?$_Vector_val@U?$_Simple_types@E@std@@@std@@@std@@@Z
?AddUInt31@@YAXIAAV?$_Vector_iterator@V?$_Vector_val@U?$_Simple_types@E@std@@@std@@@std@@@Z
?GetUInt16@@YAGAAV?$_Vector_const_iterator@V?$_Vector_val@U?$_Simple_types@E@std@@@std@@@std@@@Z
?AddUInt32@@YAXIAAV?$_Vector_iterator@V?$_Vector_val@U?$_Simple_types@E@std@@@std@@@std@@@Z
?DecodeHttp1@Request@Http@Net@@UAAXAAV?$_Vector_const_iterator@V?$_Vector_val@U?$_Simple_types@E@std@@@std@@@std@@ABV45@@Z
?Add@Request@Http@Net@@UAA_NIABU?$pair@V?$basic_string@DU?$char_traits@D@std@@V?$allocator@D@2@@std@@V12@@std@@@Z
?DecodeHttp1@Header@Http@Net@@UAAXAAV?$_Vector_const_iterator@V?$_Vector_val@U?$_Simple_types@E@std@@@std@@@std@@ABV45@@Z
?Add@Header@Http@Net@@UAA_NIABU?$pair@V?$basic_string@DU?$char_traits@D@std@@V?$allocator@D@2@@std@@V12@@std@@@Z
??0Response@Http@Net@@QAA@XZ
?Start@Session@V2@Http@Net@@QAAXXZ